target datalayout = "e-m:e-p270:32:32-p271:32:32-p272:64:64-i64:64-i128:128-f80:128-n8:16:32:64-S128"
target triple = "x86_64-pc-linux-gnu"

@hf_ntlmssp_version = internal global i32 0, align 4
@hf_ntlmssp_version_major = internal global i32 0, align 4
@hf_ntlmssp_version_minor = internal global i32 0, align 4
@hf_ntlmssp_version_build_number = internal global i32 0, align 4
@hf_ntlmssp_version_ntlm_current_revision = internal global i32 0, align 4
@ett_ntlmssp_version = internal global i32 0, align 4
@.str.294 = private unnamed_addr constant [51 x i8] c"Version %u.%u (Build %u); NTLM Current Revision %u\00", align 1

; Function Attrs: null_pointer_is_valid sspstrong uwtable
define internal i32 @dissect_ntlmssp_version(ptr noundef %0, i32 noundef %1, ptr noundef %2) #0 {
  %4 = alloca ptr, align 8
  %5 = alloca i32, align 4
  %6 = alloca ptr, align 8
  %7 = alloca ptr, align 8
  %8 = alloca ptr, align 8
  store ptr %0, ptr %4, align 8
  store i32 %1, ptr %5, align 4
  store ptr %2, ptr %6, align 8
  %9 = load ptr, ptr %6, align 8
  %10 = icmp ne ptr %9, null
  br i1 %10, label %11, label %62

11:                                               ; preds = %3
  call void @llvm.lifetime.start.p0(i64 8, ptr %7) #17
  call void @llvm.lifetime.start.p0(i64 8, ptr %8) #17
  %12 = load ptr, ptr %6, align 8
  %13 = load i32, ptr @hf_ntlmssp_version, align 4
  %14 = load ptr, ptr %4, align 8
  %15 = load i32, ptr %5, align 4
  %16 = load ptr, ptr %4, align 8
  %17 = load i32, ptr %5, align 4
  %18 = call zeroext i8 @tvb_get_uint8(ptr noundef %16, i32 noundef %17)
  %19 = zext i8 %18 to i32
  %20 = load ptr, ptr %4, align 8
  %21 = load i32, ptr %5, align 4
  %22 = add i32 %21, 1
  %23 = call zeroext i8 @tvb_get_uint8(ptr noundef %20, i32 noundef %22)
  %24 = zext i8 %23 to i32
  %25 = load ptr, ptr %4, align 8
  %26 = load i32, ptr %5, align 4
  %27 = add i32 %26, 2
  %28 = call zeroext i16 @tvb_get_letohs(ptr noundef %25, i32 noundef %27)
  %29 = zext i16 %28 to i32
  %30 = load ptr, ptr %4, align 8
  %31 = load i32, ptr %5, align 4
  %32 = add i32 %31, 7
  %33 = call zeroext i8 @tvb_get_uint8(ptr noundef %30, i32 noundef %32)
  %34 = zext i8 %33 to i32
  %35 = call ptr (ptr, i32, ptr, i32, i32, ptr, ...) @proto_tree_add_none_format(ptr noundef %12, i32 noundef %13, ptr noundef %14, i32 noundef %15, i32 noundef 8, ptr noundef @.str.294, i32 noundef %19, i32 noundef %24, i32 noundef %29, i32 noundef %34)
  store ptr %35, ptr %7, align 8
  %36 = load ptr, ptr %7, align 8
  %37 = load i32, ptr @ett_ntlmssp_version, align 4
  %38 = call ptr @proto_item_add_subtree(ptr noundef %36, i32 noundef %37)
  store ptr %38, ptr %8, align 8
  %39 = load ptr, ptr %8, align 8
  %40 = load i32, ptr @hf_ntlmssp_version_major, align 4
  %41 = load ptr, ptr %4, align 8
  %42 = load i32, ptr %5, align 4
  %43 = call ptr @proto_tree_add_item(ptr noundef %39, i32 noundef %40, ptr noundef %41, i32 noundef %42, i32 noundef 1, i32 noundef -2147483648)
  %44 = load ptr, ptr %8, align 8
  %45 = load i32, ptr @hf_ntlmssp_version_minor, align 4
  %46 = load ptr, ptr %4, align 8
  %47 = load i32, ptr %5, align 4
  %48 = add i32 %47, 1
  %49 = call ptr @proto_tree_add_item(ptr noundef %44, i32 noundef %45, ptr noundef %46, i32 noundef %48, i32 noundef 1, i32 noundef -2147483648)
  %50 = load ptr, ptr %8, align 8
  %51 = load i32, ptr @hf_ntlmssp_version_build_number, align 4
  %52 = load ptr, ptr %4, align 8
  %53 = load i32, ptr %5, align 4
  %54 = add i32 %53, 2
  %55 = call ptr @proto_tree_add_item(ptr noundef %50, i32 noundef %51, ptr noundef %52, i32 noundef %54, i32 noundef 2, i32 noundef -2147483648)
  %56 = load ptr, ptr %8, align 8
  %57 = load i32, ptr @hf_ntlmssp_version_ntlm_current_revision, align 4
  %58 = load ptr, ptr %4, align 8
  %59 = load i32, ptr %5, align 4
  %60 = add i32 %59, 7
  %61 = call ptr @proto_tree_add_item(ptr noundef %56, i32 noundef %57, ptr noundef %58, i32 noundef %60, i32 noundef 1, i32 noundef -2147483648)
  call void @llvm.lifetime.end.p0(i64 8, ptr %8) #17
  call void @llvm.lifetime.end.p0(i64 8, ptr %7) #17
  br label %62

62:                                               ; preds = %11, %3
  %63 = load i32, ptr %5, align 4
  %64 = add i32 %63, 8
  ret i32 %64
}