; Function Attrs: null_pointer_is_valid sspstrong uwtable
define internal fastcc noundef i32 @dissect_ntlmssp_version(ptr noundef %0, i32 noundef %1, ptr noundef %2) unnamed_addr #0 {
  %.not = icmp eq ptr %2, null
  br i1 %.not, label %28, label %4

4:                                                ; preds = %3
  %5 = load i32, ptr @hf_ntlmssp_version, align 4
  %6 = tail call zeroext i8 @tvb_get_uint8(ptr noundef %0, i32 noundef %1)
  %7 = zext i8 %6 to i32
  %8 = add i32 %1, 1
  %9 = tail call zeroext i8 @tvb_get_uint8(ptr noundef %0, i32 noundef %8)
  %10 = zext i8 %9 to i32
  %11 = add i32 %1, 2
  %12 = tail call zeroext i16 @tvb_get_letohs(ptr noundef %0, i32 noundef %11)
  %13 = zext i16 %12 to i32
  %14 = add i32 %1, 7
  %15 = tail call zeroext i8 @tvb_get_uint8(ptr noundef %0, i32 noundef %14)
  %16 = zext i8 %15 to i32
  %17 = tail call ptr (ptr, i32, ptr, i32, i32, ptr, ...) @proto_tree_add_none_format(ptr noundef nonnull %2, i32 noundef %5, ptr noundef %0, i32 noundef %1, i32 noundef 8, ptr noundef nonnull @.str.294, i32 noundef %7, i32 noundef %10, i32 noundef %13, i32 noundef %16)
  %18 = load i32, ptr @ett_ntlmssp_version, align 4
  %19 = tail call ptr @proto_item_add_subtree(ptr noundef %17, i32 noundef %18)
  %20 = load i32, ptr @hf_ntlmssp_version_major, align 4
  %21 = tail call ptr @proto_tree_add_item(ptr noundef %19, i32 noundef %20, ptr noundef %0, i32 noundef %1, i32 noundef 1, i32 noundef -2147483648)
  %22 = load i32, ptr @hf_ntlmssp_version_minor, align 4
  %23 = tail call ptr @proto_tree_add_item(ptr noundef %19, i32 noundef %22, ptr noundef %0, i32 noundef %8, i32 noundef 1, i32 noundef -2147483648)
  %24 = load i32, ptr @hf_ntlmssp_version_build_number, align 4
  %25 = tail call ptr @proto_tree_add_item(ptr noundef %19, i32 noundef %24, ptr noundef %0, i32 noundef %11, i32 noundef 2, i32 noundef -2147483648)
  %26 = load i32, ptr @hf_ntlmssp_version_ntlm_current_revision, align 4
  %27 = tail call ptr @proto_tree_add_item(ptr noundef %19, i32 noundef %26, ptr noundef %0, i32 noundef %14, i32 noundef 1, i32 noundef -2147483648)
  br label %28

28:                                               ; preds = %4, %3
  %29 = add i32 %1, 8
  ret i32 %29
}